

Microchip Technology PIC LITE Macro Assembler V1.41 build -162212810 
                                                                                               Mon Apr 17 17:30:36 2017

Microchip Technology Omniscient Code Generator v1.41 (Free mode) build 201701250102
     1                           	processor	16LF1527
     2                           	opt	pw 120
     3                           	opt	lm
     4                           	psect	nvCOMMON,global,class=COMMON,space=1,delta=1
     5                           	psect	cinit,global,class=CODE,merge=1,delta=2
     6                           	psect	bssCOMMON,global,class=COMMON,space=1,delta=1
     7                           	psect	cstackCOMMON,global,class=COMMON,space=1,delta=1
     8                           	psect	maintext,global,class=CODE,merge=1,split=1,delta=2
     9                           	psect	text1,local,class=CODE,merge=1,delta=2
    10                           	psect	text2,local,class=CODE,merge=1,delta=2
    11                           	psect	text3,local,class=CODE,merge=1,delta=2
    12                           	psect	text4,local,class=CODE,merge=1,delta=2
    13                           	psect	intentry,global,class=CODE,delta=2
    14                           	psect	text6,local,class=CODE,merge=1,delta=2
    15                           	psect	text7,local,class=CODE,merge=1,delta=2
    16                           	dabs	1,0x7E,2
    17  0000                     
    18                           ; Version 1.41
    19                           ; Generated 25/01/2017 GMT
    20                           ; 
    21                           ; Copyright © 2017, Microchip Technology Inc. and its subsidiaries ("Microchip")
    22                           ; All rights reserved.
    23                           ; 
    24                           ; This software is developed by Microchip Technology Inc. and its subsidiaries ("Microch
      +                          ip").
    25                           ; 
    26                           ; Redistribution and use in source and binary forms, with or without modification, are
    27                           ; permitted provided that the following conditions are met:
    28                           ; 
    29                           ;     1. Redistributions of source code must retain the above copyright notice, this lis
      +                          t of
    30                           ;        conditions and the following disclaimer.
    31                           ; 
    32                           ;     2. Redistributions in binary form must reproduce the above copyright notice, this 
      +                          list
    33                           ;        of conditions and the following disclaimer in the documentation and/or other
    34                           ;        materials provided with the distribution.
    35                           ; 
    36                           ;     3. Microchip's name may not be used to endorse or promote products derived from th
      +                          is
    37                           ;        software without specific prior written permission.
    38                           ; 
    39                           ; THIS SOFTWARE IS PROVIDED BY MICROCHIP "AS IS" AND ANY EXPRESS OR IMPLIED WARRANTIES,
    40                           ; INCLUDING, BUT NOT LIMITED TO, THE IMPLIED WARRANTIES OF MERCHANTABILITY AND FITNESS F
      +                          OR
    41                           ; PURPOSE ARE DISCLAIMED.  IN NO EVENT SHALL MICROCHIP BE LIABLE FOR ANY DIRECT, INDIREC
      +                          T,
    42                           ; INCIDENTAL, SPECIAL, EXEMPLARY, OR CONSEQUENTIAL DAMAGES (INCLUDING BUT NOT LIMITED TO
    43                           ; PROCUREMENT OF SUBSTITUTE GOODS OR SERVICES; LOSS OF USE, DATA OR PROFITS; OR BUSINESS
    44                           ; INTERRUPTION) HOWSOEVER CAUSED AND ON ANY THEORY OF LIABILITY, WHETHER IN CONTRACT, ST
      +                          RICT
    45                           ; LIABILITY, OR TORT (INCLUDING NEGLIGENCE OR OTHERWISE) ARISING IN ANY WAY OUT OF THE U
      +                          SE OF
    46                           ; THIS SOFTWARE, EVEN IF ADVISED OF THE POSSIBILITY OF SUCH DAMAGE.
    47                           ; 
    48                           ; 
    49                           ; Code-generator required, PIC16LF1527 Definitions
    50                           ; 
    51                           ; SFR Addresses
    52  0000                     	;# 
    53  0001                     	;# 
    54  0002                     	;# 
    55  0003                     	;# 
    56  0004                     	;# 
    57  0005                     	;# 
    58  0006                     	;# 
    59  0007                     	;# 
    60  0008                     	;# 
    61  0009                     	;# 
    62  000A                     	;# 
    63  000B                     	;# 
    64  000C                     	;# 
    65  000D                     	;# 
    66  000E                     	;# 
    67  000F                     	;# 
    68  0010                     	;# 
    69  0011                     	;# 
    70  0012                     	;# 
    71  0013                     	;# 
    72  0014                     	;# 
    73  0015                     	;# 
    74  0016                     	;# 
    75  0016                     	;# 
    76  0017                     	;# 
    77  0018                     	;# 
    78  0019                     	;# 
    79  001A                     	;# 
    80  001B                     	;# 
    81  001C                     	;# 
    82  008C                     	;# 
    83  008D                     	;# 
    84  008E                     	;# 
    85  008F                     	;# 
    86  0090                     	;# 
    87  0091                     	;# 
    88  0092                     	;# 
    89  0093                     	;# 
    90  0094                     	;# 
    91  0095                     	;# 
    92  0096                     	;# 
    93  0097                     	;# 
    94  0099                     	;# 
    95  009A                     	;# 
    96  009B                     	;# 
    97  009B                     	;# 
    98  009C                     	;# 
    99  009D                     	;# 
   100  009E                     	;# 
   101  010C                     	;# 
   102  010D                     	;# 
   103  010E                     	;# 
   104  010F                     	;# 
   105  0110                     	;# 
   106  0116                     	;# 
   107  0117                     	;# 
   108  011D                     	;# 
   109  018C                     	;# 
   110  018D                     	;# 
   111  018F                     	;# 
   112  0190                     	;# 
   113  0191                     	;# 
   114  0191                     	;# 
   115  0192                     	;# 
   116  0193                     	;# 
   117  0193                     	;# 
   118  0194                     	;# 
   119  0195                     	;# 
   120  0196                     	;# 
   121  0199                     	;# 
   122  0199                     	;# 
   123  0199                     	;# 
   124  019A                     	;# 
   125  019A                     	;# 
   126  019A                     	;# 
   127  019B                     	;# 
   128  019B                     	;# 
   129  019B                     	;# 
   130  019B                     	;# 
   131  019B                     	;# 
   132  019C                     	;# 
   133  019C                     	;# 
   134  019C                     	;# 
   135  019D                     	;# 
   136  019D                     	;# 
   137  019D                     	;# 
   138  019E                     	;# 
   139  019E                     	;# 
   140  019E                     	;# 
   141  019F                     	;# 
   142  019F                     	;# 
   143  019F                     	;# 
   144  020D                     	;# 
   145  020F                     	;# 
   146  0210                     	;# 
   147  0211                     	;# 
   148  0211                     	;# 
   149  0212                     	;# 
   150  0212                     	;# 
   151  0213                     	;# 
   152  0213                     	;# 
   153  0214                     	;# 
   154  0214                     	;# 
   155  0215                     	;# 
   156  0215                     	;# 
   157  0215                     	;# 
   158  0216                     	;# 
   159  0216                     	;# 
   160  0217                     	;# 
   161  0217                     	;# 
   162  0219                     	;# 
   163  021A                     	;# 
   164  021B                     	;# 
   165  021C                     	;# 
   166  021D                     	;# 
   167  021E                     	;# 
   168  021F                     	;# 
   169  028C                     	;# 
   170  028D                     	;# 
   171  0291                     	;# 
   172  0291                     	;# 
   173  0292                     	;# 
   174  0293                     	;# 
   175  0298                     	;# 
   176  0298                     	;# 
   177  0299                     	;# 
   178  029A                     	;# 
   179  029D                     	;# 
   180  029E                     	;# 
   181  029F                     	;# 
   182  030C                     	;# 
   183  030D                     	;# 
   184  0311                     	;# 
   185  0311                     	;# 
   186  0312                     	;# 
   187  0313                     	;# 
   188  0318                     	;# 
   189  0318                     	;# 
   190  0319                     	;# 
   191  031A                     	;# 
   192  031C                     	;# 
   193  031C                     	;# 
   194  031D                     	;# 
   195  031E                     	;# 
   196  038C                     	;# 
   197  038D                     	;# 
   198  0394                     	;# 
   199  0395                     	;# 
   200  0396                     	;# 
   201  040C                     	;# 
   202  040D                     	;# 
   203  0411                     	;# 
   204  0411                     	;# 
   205  0412                     	;# 
   206  0413                     	;# 
   207  0414                     	;# 
   208  0415                     	;# 
   209  0416                     	;# 
   210  0417                     	;# 
   211  0418                     	;# 
   212  0418                     	;# 
   213  0419                     	;# 
   214  041A                     	;# 
   215  041B                     	;# 
   216  041C                     	;# 
   217  041D                     	;# 
   218  041E                     	;# 
   219  048D                     	;# 
   220  0491                     	;# 
   221  0491                     	;# 
   222  0492                     	;# 
   223  0492                     	;# 
   224  0493                     	;# 
   225  0493                     	;# 
   226  0493                     	;# 
   227  0494                     	;# 
   228  0494                     	;# 
   229  0495                     	;# 
   230  0495                     	;# 
   231  0496                     	;# 
   232  0496                     	;# 
   233  0497                     	;# 
   234  0497                     	;# 
   235  0595                     	;# 
   236  0596                     	;# 
   237  0597                     	;# 
   238  059C                     	;# 
   239  059D                     	;# 
   240  059E                     	;# 
   241  0611                     	;# 
   242  0611                     	;# 
   243  0612                     	;# 
   244  0613                     	;# 
   245  0614                     	;# 
   246  0614                     	;# 
   247  0615                     	;# 
   248  0616                     	;# 
   249  0617                     	;# 
   250  0617                     	;# 
   251  0618                     	;# 
   252  0619                     	;# 
   253  061A                     	;# 
   254  061A                     	;# 
   255  061B                     	;# 
   256  061C                     	;# 
   257  061D                     	;# 
   258  061D                     	;# 
   259  061E                     	;# 
   260  061F                     	;# 
   261  0FE4                     	;# 
   262  0FE5                     	;# 
   263  0FE6                     	;# 
   264  0FE7                     	;# 
   265  0FE8                     	;# 
   266  0FE9                     	;# 
   267  0FEA                     	;# 
   268  0FEB                     	;# 
   269  0FED                     	;# 
   270  0FEE                     	;# 
   271  0FEF                     	;# 
   272  0000                     	;# 
   273  0001                     	;# 
   274  0002                     	;# 
   275  0003                     	;# 
   276  0004                     	;# 
   277  0005                     	;# 
   278  0006                     	;# 
   279  0007                     	;# 
   280  0008                     	;# 
   281  0009                     	;# 
   282  000A                     	;# 
   283  000B                     	;# 
   284  000C                     	;# 
   285  000D                     	;# 
   286  000E                     	;# 
   287  000F                     	;# 
   288  0010                     	;# 
   289  0011                     	;# 
   290  0012                     	;# 
   291  0013                     	;# 
   292  0014                     	;# 
   293  0015                     	;# 
   294  0016                     	;# 
   295  0016                     	;# 
   296  0017                     	;# 
   297  0018                     	;# 
   298  0019                     	;# 
   299  001A                     	;# 
   300  001B                     	;# 
   301  001C                     	;# 
   302  008C                     	;# 
   303  008D                     	;# 
   304  008E                     	;# 
   305  008F                     	;# 
   306  0090                     	;# 
   307  0091                     	;# 
   308  0092                     	;# 
   309  0093                     	;# 
   310  0094                     	;# 
   311  0095                     	;# 
   312  0096                     	;# 
   313  0097                     	;# 
   314  0099                     	;# 
   315  009A                     	;# 
   316  009B                     	;# 
   317  009B                     	;# 
   318  009C                     	;# 
   319  009D                     	;# 
   320  009E                     	;# 
   321  010C                     	;# 
   322  010D                     	;# 
   323  010E                     	;# 
   324  010F                     	;# 
   325  0110                     	;# 
   326  0116                     	;# 
   327  0117                     	;# 
   328  011D                     	;# 
   329  018C                     	;# 
   330  018D                     	;# 
   331  018F                     	;# 
   332  0190                     	;# 
   333  0191                     	;# 
   334  0191                     	;# 
   335  0192                     	;# 
   336  0193                     	;# 
   337  0193                     	;# 
   338  0194                     	;# 
   339  0195                     	;# 
   340  0196                     	;# 
   341  0199                     	;# 
   342  0199                     	;# 
   343  0199                     	;# 
   344  019A                     	;# 
   345  019A                     	;# 
   346  019A                     	;# 
   347  019B                     	;# 
   348  019B                     	;# 
   349  019B                     	;# 
   350  019B                     	;# 
   351  019B                     	;# 
   352  019C                     	;# 
   353  019C                     	;# 
   354  019C                     	;# 
   355  019D                     	;# 
   356  019D                     	;# 
   357  019D                     	;# 
   358  019E                     	;# 
   359  019E                     	;# 
   360  019E                     	;# 
   361  019F                     	;# 
   362  019F                     	;# 
   363  019F                     	;# 
   364  020D                     	;# 
   365  020F                     	;# 
   366  0210                     	;# 
   367  0211                     	;# 
   368  0211                     	;# 
   369  0212                     	;# 
   370  0212                     	;# 
   371  0213                     	;# 
   372  0213                     	;# 
   373  0214                     	;# 
   374  0214                     	;# 
   375  0215                     	;# 
   376  0215                     	;# 
   377  0215                     	;# 
   378  0216                     	;# 
   379  0216                     	;# 
   380  0217                     	;# 
   381  0217                     	;# 
   382  0219                     	;# 
   383  021A                     	;# 
   384  021B                     	;# 
   385  021C                     	;# 
   386  021D                     	;# 
   387  021E                     	;# 
   388  021F                     	;# 
   389  028C                     	;# 
   390  028D                     	;# 
   391  0291                     	;# 
   392  0291                     	;# 
   393  0292                     	;# 
   394  0293                     	;# 
   395  0298                     	;# 
   396  0298                     	;# 
   397  0299                     	;# 
   398  029A                     	;# 
   399  029D                     	;# 
   400  029E                     	;# 
   401  029F                     	;# 
   402  030C                     	;# 
   403  030D                     	;# 
   404  0311                     	;# 
   405  0311                     	;# 
   406  0312                     	;# 
   407  0313                     	;# 
   408  0318                     	;# 
   409  0318                     	;# 
   410  0319                     	;# 
   411  031A                     	;# 
   412  031C                     	;# 
   413  031C                     	;# 
   414  031D                     	;# 
   415  031E                     	;# 
   416  038C                     	;# 
   417  038D                     	;# 
   418  0394                     	;# 
   419  0395                     	;# 
   420  0396                     	;# 
   421  040C                     	;# 
   422  040D                     	;# 
   423  0411                     	;# 
   424  0411                     	;# 
   425  0412                     	;# 
   426  0413                     	;# 
   427  0414                     	;# 
   428  0415                     	;# 
   429  0416                     	;# 
   430  0417                     	;# 
   431  0418                     	;# 
   432  0418                     	;# 
   433  0419                     	;# 
   434  041A                     	;# 
   435  041B                     	;# 
   436  041C                     	;# 
   437  041D                     	;# 
   438  041E                     	;# 
   439  048D                     	;# 
   440  0491                     	;# 
   441  0491                     	;# 
   442  0492                     	;# 
   443  0492                     	;# 
   444  0493                     	;# 
   445  0493                     	;# 
   446  0493                     	;# 
   447  0494                     	;# 
   448  0494                     	;# 
   449  0495                     	;# 
   450  0495                     	;# 
   451  0496                     	;# 
   452  0496                     	;# 
   453  0497                     	;# 
   454  0497                     	;# 
   455  0595                     	;# 
   456  0596                     	;# 
   457  0597                     	;# 
   458  059C                     	;# 
   459  059D                     	;# 
   460  059E                     	;# 
   461  0611                     	;# 
   462  0611                     	;# 
   463  0612                     	;# 
   464  0613                     	;# 
   465  0614                     	;# 
   466  0614                     	;# 
   467  0615                     	;# 
   468  0616                     	;# 
   469  0617                     	;# 
   470  0617                     	;# 
   471  0618                     	;# 
   472  0619                     	;# 
   473  061A                     	;# 
   474  061A                     	;# 
   475  061B                     	;# 
   476  061C                     	;# 
   477  061D                     	;# 
   478  061D                     	;# 
   479  061E                     	;# 
   480  061F                     	;# 
   481  0FE4                     	;# 
   482  0FE5                     	;# 
   483  0FE6                     	;# 
   484  0FE7                     	;# 
   485  0FE8                     	;# 
   486  0FE9                     	;# 
   487  0FEA                     	;# 
   488  0FEB                     	;# 
   489  0FED                     	;# 
   490  0FEE                     	;# 
   491  0FEF                     	;# 
   492  0000                     	;# 
   493  0001                     	;# 
   494  0002                     	;# 
   495  0003                     	;# 
   496  0004                     	;# 
   497  0005                     	;# 
   498  0006                     	;# 
   499  0007                     	;# 
   500  0008                     	;# 
   501  0009                     	;# 
   502  000A                     	;# 
   503  000B                     	;# 
   504  000C                     	;# 
   505  000D                     	;# 
   506  000E                     	;# 
   507  000F                     	;# 
   508  0010                     	;# 
   509  0011                     	;# 
   510  0012                     	;# 
   511  0013                     	;# 
   512  0014                     	;# 
   513  0015                     	;# 
   514  0016                     	;# 
   515  0016                     	;# 
   516  0017                     	;# 
   517  0018                     	;# 
   518  0019                     	;# 
   519  001A                     	;# 
   520  001B                     	;# 
   521  001C                     	;# 
   522  008C                     	;# 
   523  008D                     	;# 
   524  008E                     	;# 
   525  008F                     	;# 
   526  0090                     	;# 
   527  0091                     	;# 
   528  0092                     	;# 
   529  0093                     	;# 
   530  0094                     	;# 
   531  0095                     	;# 
   532  0096                     	;# 
   533  0097                     	;# 
   534  0099                     	;# 
   535  009A                     	;# 
   536  009B                     	;# 
   537  009B                     	;# 
   538  009C                     	;# 
   539  009D                     	;# 
   540  009E                     	;# 
   541  010C                     	;# 
   542  010D                     	;# 
   543  010E                     	;# 
   544  010F                     	;# 
   545  0110                     	;# 
   546  0116                     	;# 
   547  0117                     	;# 
   548  011D                     	;# 
   549  018C                     	;# 
   550  018D                     	;# 
   551  018F                     	;# 
   552  0190                     	;# 
   553  0191                     	;# 
   554  0191                     	;# 
   555  0192                     	;# 
   556  0193                     	;# 
   557  0193                     	;# 
   558  0194                     	;# 
   559  0195                     	;# 
   560  0196                     	;# 
   561  0199                     	;# 
   562  0199                     	;# 
   563  0199                     	;# 
   564  019A                     	;# 
   565  019A                     	;# 
   566  019A                     	;# 
   567  019B                     	;# 
   568  019B                     	;# 
   569  019B                     	;# 
   570  019B                     	;# 
   571  019B                     	;# 
   572  019C                     	;# 
   573  019C                     	;# 
   574  019C                     	;# 
   575  019D                     	;# 
   576  019D                     	;# 
   577  019D                     	;# 
   578  019E                     	;# 
   579  019E                     	;# 
   580  019E                     	;# 
   581  019F                     	;# 
   582  019F                     	;# 
   583  019F                     	;# 
   584  020D                     	;# 
   585  020F                     	;# 
   586  0210                     	;# 
   587  0211                     	;# 
   588  0211                     	;# 
   589  0212                     	;# 
   590  0212                     	;# 
   591  0213                     	;# 
   592  0213                     	;# 
   593  0214                     	;# 
   594  0214                     	;# 
   595  0215                     	;# 
   596  0215                     	;# 
   597  0215                     	;# 
   598  0216                     	;# 
   599  0216                     	;# 
   600  0217                     	;# 
   601  0217                     	;# 
   602  0219                     	;# 
   603  021A                     	;# 
   604  021B                     	;# 
   605  021C                     	;# 
   606  021D                     	;# 
   607  021E                     	;# 
   608  021F                     	;# 
   609  028C                     	;# 
   610  028D                     	;# 
   611  0291                     	;# 
   612  0291                     	;# 
   613  0292                     	;# 
   614  0293                     	;# 
   615  0298                     	;# 
   616  0298                     	;# 
   617  0299                     	;# 
   618  029A                     	;# 
   619  029D                     	;# 
   620  029E                     	;# 
   621  029F                     	;# 
   622  030C                     	;# 
   623  030D                     	;# 
   624  0311                     	;# 
   625  0311                     	;# 
   626  0312                     	;# 
   627  0313                     	;# 
   628  0318                     	;# 
   629  0318                     	;# 
   630  0319                     	;# 
   631  031A                     	;# 
   632  031C                     	;# 
   633  031C                     	;# 
   634  031D                     	;# 
   635  031E                     	;# 
   636  038C                     	;# 
   637  038D                     	;# 
   638  0394                     	;# 
   639  0395                     	;# 
   640  0396                     	;# 
   641  040C                     	;# 
   642  040D                     	;# 
   643  0411                     	;# 
   644  0411                     	;# 
   645  0412                     	;# 
   646  0413                     	;# 
   647  0414                     	;# 
   648  0415                     	;# 
   649  0416                     	;# 
   650  0417                     	;# 
   651  0418                     	;# 
   652  0418                     	;# 
   653  0419                     	;# 
   654  041A                     	;# 
   655  041B                     	;# 
   656  041C                     	;# 
   657  041D                     	;# 
   658  041E                     	;# 
   659  048D                     	;# 
   660  0491                     	;# 
   661  0491                     	;# 
   662  0492                     	;# 
   663  0492                     	;# 
   664  0493                     	;# 
   665  0493                     	;# 
   666  0493                     	;# 
   667  0494                     	;# 
   668  0494                     	;# 
   669  0495                     	;# 
   670  0495                     	;# 
   671  0496                     	;# 
   672  0496                     	;# 
   673  0497                     	;# 
   674  0497                     	;# 
   675  0595                     	;# 
   676  0596                     	;# 
   677  0597                     	;# 
   678  059C                     	;# 
   679  059D                     	;# 
   680  059E                     	;# 
   681  0611                     	;# 
   682  0611                     	;# 
   683  0612                     	;# 
   684  0613                     	;# 
   685  0614                     	;# 
   686  0614                     	;# 
   687  0615                     	;# 
   688  0616                     	;# 
   689  0617                     	;# 
   690  0617                     	;# 
   691  0618                     	;# 
   692  0619                     	;# 
   693  061A                     	;# 
   694  061A                     	;# 
   695  061B                     	;# 
   696  061C                     	;# 
   697  061D                     	;# 
   698  061D                     	;# 
   699  061E                     	;# 
   700  061F                     	;# 
   701  0FE4                     	;# 
   702  0FE5                     	;# 
   703  0FE6                     	;# 
   704  0FE7                     	;# 
   705  0FE8                     	;# 
   706  0FE9                     	;# 
   707  0FEA                     	;# 
   708  0FEB                     	;# 
   709  0FED                     	;# 
   710  0FEE                     	;# 
   711  0FEF                     	;# 
   712  0000                     	;# 
   713  0001                     	;# 
   714  0002                     	;# 
   715  0003                     	;# 
   716  0004                     	;# 
   717  0005                     	;# 
   718  0006                     	;# 
   719  0007                     	;# 
   720  0008                     	;# 
   721  0009                     	;# 
   722  000A                     	;# 
   723  000B                     	;# 
   724  000C                     	;# 
   725  000D                     	;# 
   726  000E                     	;# 
   727  000F                     	;# 
   728  0010                     	;# 
   729  0011                     	;# 
   730  0012                     	;# 
   731  0013                     	;# 
   732  0014                     	;# 
   733  0015                     	;# 
   734  0016                     	;# 
   735  0016                     	;# 
   736  0017                     	;# 
   737  0018                     	;# 
   738  0019                     	;# 
   739  001A                     	;# 
   740  001B                     	;# 
   741  001C                     	;# 
   742  008C                     	;# 
   743  008D                     	;# 
   744  008E                     	;# 
   745  008F                     	;# 
   746  0090                     	;# 
   747  0091                     	;# 
   748  0092                     	;# 
   749  0093                     	;# 
   750  0094                     	;# 
   751  0095                     	;# 
   752  0096                     	;# 
   753  0097                     	;# 
   754  0099                     	;# 
   755  009A                     	;# 
   756  009B                     	;# 
   757  009B                     	;# 
   758  009C                     	;# 
   759  009D                     	;# 
   760  009E                     	;# 
   761  010C                     	;# 
   762  010D                     	;# 
   763  010E                     	;# 
   764  010F                     	;# 
   765  0110                     	;# 
   766  0116                     	;# 
   767  0117                     	;# 
   768  011D                     	;# 
   769  018C                     	;# 
   770  018D                     	;# 
   771  018F                     	;# 
   772  0190                     	;# 
   773  0191                     	;# 
   774  0191                     	;# 
   775  0192                     	;# 
   776  0193                     	;# 
   777  0193                     	;# 
   778  0194                     	;# 
   779  0195                     	;# 
   780  0196                     	;# 
   781  0199                     	;# 
   782  0199                     	;# 
   783  0199                     	;# 
   784  019A                     	;# 
   785  019A                     	;# 
   786  019A                     	;# 
   787  019B                     	;# 
   788  019B                     	;# 
   789  019B                     	;# 
   790  019B                     	;# 
   791  019B                     	;# 
   792  019C                     	;# 
   793  019C                     	;# 
   794  019C                     	;# 
   795  019D                     	;# 
   796  019D                     	;# 
   797  019D                     	;# 
   798  019E                     	;# 
   799  019E                     	;# 
   800  019E                     	;# 
   801  019F                     	;# 
   802  019F                     	;# 
   803  019F                     	;# 
   804  020D                     	;# 
   805  020F                     	;# 
   806  0210                     	;# 
   807  0211                     	;# 
   808  0211                     	;# 
   809  0212                     	;# 
   810  0212                     	;# 
   811  0213                     	;# 
   812  0213                     	;# 
   813  0214                     	;# 
   814  0214                     	;# 
   815  0215                     	;# 
   816  0215                     	;# 
   817  0215                     	;# 
   818  0216                     	;# 
   819  0216                     	;# 
   820  0217                     	;# 
   821  0217                     	;# 
   822  0219                     	;# 
   823  021A                     	;# 
   824  021B                     	;# 
   825  021C                     	;# 
   826  021D                     	;# 
   827  021E                     	;# 
   828  021F                     	;# 
   829  028C                     	;# 
   830  028D                     	;# 
   831  0291                     	;# 
   832  0291                     	;# 
   833  0292                     	;# 
   834  0293                     	;# 
   835  0298                     	;# 
   836  0298                     	;# 
   837  0299                     	;# 
   838  029A                     	;# 
   839  029D                     	;# 
   840  029E                     	;# 
   841  029F                     	;# 
   842  030C                     	;# 
   843  030D                     	;# 
   844  0311                     	;# 
   845  0311                     	;# 
   846  0312                     	;# 
   847  0313                     	;# 
   848  0318                     	;# 
   849  0318                     	;# 
   850  0319                     	;# 
   851  031A                     	;# 
   852  031C                     	;# 
   853  031C                     	;# 
   854  031D                     	;# 
   855  031E                     	;# 
   856  038C                     	;# 
   857  038D                     	;# 
   858  0394                     	;# 
   859  0395                     	;# 
   860  0396                     	;# 
   861  040C                     	;# 
   862  040D                     	;# 
   863  0411                     	;# 
   864  0411                     	;# 
   865  0412                     	;# 
   866  0413                     	;# 
   867  0414                     	;# 
   868  0415                     	;# 
   869  0416                     	;# 
   870  0417                     	;# 
   871  0418                     	;# 
   872  0418                     	;# 
   873  0419                     	;# 
   874  041A                     	;# 
   875  041B                     	;# 
   876  041C                     	;# 
   877  041D                     	;# 
   878  041E                     	;# 
   879  048D                     	;# 
   880  0491                     	;# 
   881  0491                     	;# 
   882  0492                     	;# 
   883  0492                     	;# 
   884  0493                     	;# 
   885  0493                     	;# 
   886  0493                     	;# 
   887  0494                     	;# 
   888  0494                     	;# 
   889  0495                     	;# 
   890  0495                     	;# 
   891  0496                     	;# 
   892  0496                     	;# 
   893  0497                     	;# 
   894  0497                     	;# 
   895  0595                     	;# 
   896  0596                     	;# 
   897  0597                     	;# 
   898  059C                     	;# 
   899  059D                     	;# 
   900  059E                     	;# 
   901  0611                     	;# 
   902  0611                     	;# 
   903  0612                     	;# 
   904  0613                     	;# 
   905  0614                     	;# 
   906  0614                     	;# 
   907  0615                     	;# 
   908  0616                     	;# 
   909  0617                     	;# 
   910  0617                     	;# 
   911  0618                     	;# 
   912  0619                     	;# 
   913  061A                     	;# 
   914  061A                     	;# 
   915  061B                     	;# 
   916  061C                     	;# 
   917  061D                     	;# 
   918  061D                     	;# 
   919  061E                     	;# 
   920  061F                     	;# 
   921  0FE4                     	;# 
   922  0FE5                     	;# 
   923  0FE6                     	;# 
   924  0FE7                     	;# 
   925  0FE8                     	;# 
   926  0FE9                     	;# 
   927  0FEA                     	;# 
   928  0FEB                     	;# 
   929  0FED                     	;# 
   930  0FEE                     	;# 
   931  0FEF                     	;# 
   932  0000                     	;# 
   933  0001                     	;# 
   934  0002                     	;# 
   935  0003                     	;# 
   936  0004                     	;# 
   937  0005                     	;# 
   938  0006                     	;# 
   939  0007                     	;# 
   940  0008                     	;# 
   941  0009                     	;# 
   942  000A                     	;# 
   943  000B                     	;# 
   944  000C                     	;# 
   945  000D                     	;# 
   946  000E                     	;# 
   947  000F                     	;# 
   948  0010                     	;# 
   949  0011                     	;# 
   950  0012                     	;# 
   951  0013                     	;# 
   952  0014                     	;# 
   953  0015                     	;# 
   954  0016                     	;# 
   955  0016                     	;# 
   956  0017                     	;# 
   957  0018                     	;# 
   958  0019                     	;# 
   959  001A                     	;# 
   960  001B                     	;# 
   961  001C                     	;# 
   962  008C                     	;# 
   963  008D                     	;# 
   964  008E                     	;# 
   965  008F                     	;# 
   966  0090                     	;# 
   967  0091                     	;# 
   968  0092                     	;# 
   969  0093                     	;# 
   970  0094                     	;# 
   971  0095                     	;# 
   972  0096                     	;# 
   973  0097                     	;# 
   974  0099                     	;# 
   975  009A                     	;# 
   976  009B                     	;# 
   977  009B                     	;# 
   978  009C                     	;# 
   979  009D                     	;# 
   980  009E                     	;# 
   981  010C                     	;# 
   982  010D                     	;# 
   983  010E                     	;# 
   984  010F                     	;# 
   985  0110                     	;# 
   986  0116                     	;# 
   987  0117                     	;# 
   988  011D                     	;# 
   989  018C                     	;# 
   990  018D                     	;# 
   991  018F                     	;# 
   992  0190                     	;# 
   993  0191                     	;# 
   994  0191                     	;# 
   995  0192                     	;# 
   996  0193                     	;# 
   997  0193                     	;# 
   998  0194                     	;# 
   999  0195                     	;# 
  1000  0196                     	;# 
  1001  0199                     	;# 
  1002  0199                     	;# 
  1003  0199                     	;# 
  1004  019A                     	;# 
  1005  019A                     	;# 
  1006  019A                     	;# 
  1007  019B                     	;# 
  1008  019B                     	;# 
  1009  019B                     	;# 
  1010  019B                     	;# 
  1011  019B                     	;# 
  1012  019C                     	;# 
  1013  019C                     	;# 
  1014  019C                     	;# 
  1015  019D                     	;# 
  1016  019D                     	;# 
  1017  019D                     	;# 
  1018  019E                     	;# 
  1019  019E                     	;# 
  1020  019E                     	;# 
  1021  019F                     	;# 
  1022  019F                     	;# 
  1023  019F                     	;# 
  1024  020D                     	;# 
  1025  020F                     	;# 
  1026  0210                     	;# 
  1027  0211                     	;# 
  1028  0211                     	;# 
  1029  0212                     	;# 
  1030  0212                     	;# 
  1031  0213                     	;# 
  1032  0213                     	;# 
  1033  0214                     	;# 
  1034  0214                     	;# 
  1035  0215                     	;# 
  1036  0215                     	;# 
  1037  0215                     	;# 
  1038  0216                     	;# 
  1039  0216                     	;# 
  1040  0217                     	;# 
  1041  0217                     	;# 
  1042  0219                     	;# 
  1043  021A                     	;# 
  1044  021B                     	;# 
  1045  021C                     	;# 
  1046  021D                     	;# 
  1047  021E                     	;# 
  1048  021F                     	;# 
  1049  028C                     	;# 
  1050  028D                     	;# 
  1051  0291                     	;# 
  1052  0291                     	;# 
  1053  0292                     	;# 
  1054  0293                     	;# 
  1055  0298                     	;# 
  1056  0298                     	;# 
  1057  0299                     	;# 
  1058  029A                     	;# 
  1059  029D                     	;# 
  1060  029E                     	;# 
  1061  029F                     	;# 
  1062  030C                     	;# 
  1063  030D                     	;# 
  1064  0311                     	;# 
  1065  0311                     	;# 
  1066  0312                     	;# 
  1067  0313                     	;# 
  1068  0318                     	;# 
  1069  0318                     	;# 
  1070  0319                     	;# 
  1071  031A                     	;# 
  1072  031C                     	;# 
  1073  031C                     	;# 
  1074  031D                     	;# 
  1075  031E                     	;# 
  1076  038C                     	;# 
  1077  038D                     	;# 
  1078  0394                     	;# 
  1079  0395                     	;# 
  1080  0396                     	;# 
  1081  040C                     	;# 
  1082  040D                     	;# 
  1083  0411                     	;# 
  1084  0411                     	;# 
  1085  0412                     	;# 
  1086  0413                     	;# 
  1087  0414                     	;# 
  1088  0415                     	;# 
  1089  0416                     	;# 
  1090  0417                     	;# 
  1091  0418                     	;# 
  1092  0418                     	;# 
  1093  0419                     	;# 
  1094  041A                     	;# 
  1095  041B                     	;# 
  1096  041C                     	;# 
  1097  041D                     	;# 
  1098  041E                     	;# 
  1099  048D                     	;# 
  1100  0491                     	;# 
  1101  0491                     	;# 
  1102  0492                     	;# 
  1103  0492                     	;# 
  1104  0493                     	;# 
  1105  0493                     	;# 
  1106  0493                     	;# 
  1107  0494                     	;# 
  1108  0494                     	;# 
  1109  0495                     	;# 
  1110  0495                     	;# 
  1111  0496                     	;# 
  1112  0496                     	;# 
  1113  0497                     	;# 
  1114  0497                     	;# 
  1115  0595                     	;# 
  1116  0596                     	;# 
  1117  0597                     	;# 
  1118  059C                     	;# 
  1119  059D                     	;# 
  1120  059E                     	;# 
  1121  0611                     	;# 
  1122  0611                     	;# 
  1123  0612                     	;# 
  1124  0613                     	;# 
  1125  0614                     	;# 
  1126  0614                     	;# 
  1127  0615                     	;# 
  1128  0616                     	;# 
  1129  0617                     	;# 
  1130  0617                     	;# 
  1131  0618                     	;# 
  1132  0619                     	;# 
  1133  061A                     	;# 
  1134  061A                     	;# 
  1135  061B                     	;# 
  1136  061C                     	;# 
  1137  061D                     	;# 
  1138  061D                     	;# 
  1139  061E                     	;# 
  1140  061F                     	;# 
  1141  0FE4                     	;# 
  1142  0FE5                     	;# 
  1143  0FE6                     	;# 
  1144  0FE7                     	;# 
  1145  0FE8                     	;# 
  1146  0FE9                     	;# 
  1147  0FEA                     	;# 
  1148  0FEB                     	;# 
  1149  0FED                     	;# 
  1150  0FEE                     	;# 
  1151  0FEF                     	;# 
  1152                           
  1153                           	psect	nvCOMMON
  1154  0075                     __pnvCOMMON:	
  1155  0075                     _timer0ReloadVal:	
  1156  0075                     	ds	1
  1157  000B                     _INTCONbits	set	11
  1158  0015                     _TMR0	set	21
  1159  009A                     _OSCSTAT	set	154
  1160  0099                     _OSCCON	set	153
  1161  0095                     _OPTION_REGbits	set	149
  1162  0090                     _TRISE	set	144
  1163  008F                     _TRISD	set	143
  1164  008E                     _TRISC	set	142
  1165  008D                     _TRISB	set	141
  1166  008C                     _TRISA	set	140
  1167  0095                     _OPTION_REG	set	149
  1168  011D                     _APFCON	set	285
  1169  0110                     _LATE	set	272
  1170  010F                     _LATD	set	271
  1171  010E                     _LATC	set	270
  1172  010D                     _LATB	set	269
  1173  010C                     _LATA	set	268
  1174  0190                     _ANSELE	set	400
  1175  018F                     _ANSELD	set	399
  1176  018D                     _ANSELB	set	397
  1177  018C                     _ANSELA	set	396
  1178  0210                     _WPUE	set	528
  1179  020F                     _WPUD	set	527
  1180  020D                     _WPUB	set	525
  1181  030D                     _TRISG	set	781
  1182  030C                     _TRISF	set	780
  1183  038D                     _LATG	set	909
  1184  038C                     _LATF	set	908
  1185  038C                     _LATFbits	set	908
  1186  040D                     _ANSELG	set	1037
  1187  040C                     _ANSELF	set	1036
  1188  048D                     _WPUG	set	1165
  1189                           
  1190                           ; #config settings
  1191  0000                     
  1192                           	psect	cinit
  1193  0015                     start_initialization:	
  1194  0015                     __initialization:	
  1195                           
  1196                           ; Clear objects allocated to COMMON
  1197  0015  01F3               	clrf	__pbssCOMMON& (0+127)
  1198  0016  01F4               	clrf	(__pbssCOMMON+1)& (0+127)
  1199  0017                     end_of_initialization:	
  1200                           ;End of C runtime variable initialization code
  1201                           
  1202  0017                     __end_of__initialization:	
  1203  0017  107E               	bcf	int$flags,0	;clear compiler interrupt flag (level 1)
  1204  0018  0020               	movlb	0
  1205  0019  3180  2895         	ljmp	_main	;jump to C main() function
  1206                           
  1207                           	psect	bssCOMMON
  1208  0073                     __pbssCOMMON:	
  1209  0073                     TMR0_ISR@CountCallBack:	
  1210  0073                     	ds	2
  1211                           
  1212                           	psect	cstackCOMMON
  1213  0070                     __pcstackCOMMON:	
  1214  0070                     ?_TMR0_CallBack:	
  1215  0070                     ??_TMR0_CallBack:	
  1216                           ; 1 bytes @ 0x0
  1217                           
  1218  0070                     ?_OSCILLATOR_Initialize:	
  1219                           ; 1 bytes @ 0x0
  1220                           
  1221  0070                     ?_TMR0_Initialize:	
  1222                           ; 1 bytes @ 0x0
  1223                           
  1224  0070                     ?_TMR0_ISR:	
  1225                           ; 1 bytes @ 0x0
  1226                           
  1227  0070                     ?_PIN_MANAGER_Initialize:	
  1228                           ; 1 bytes @ 0x0
  1229                           
  1230  0070                     ?_SYSTEM_Initialize:	
  1231                           ; 1 bytes @ 0x0
  1232                           
  1233  0070                     ?_main:	
  1234                           ; 1 bytes @ 0x0
  1235                           
  1236  0070                     ?_INTERRUPT_InterruptManager:	
  1237                           ; 1 bytes @ 0x0
  1238                           
  1239                           
  1240                           ; 1 bytes @ 0x0
  1241  0070                     	ds	1
  1242  0071                     ??_TMR0_ISR:	
  1243  0071                     ??_INTERRUPT_InterruptManager:	
  1244                           ; 1 bytes @ 0x1
  1245                           
  1246                           
  1247                           ; 1 bytes @ 0x1
  1248  0071                     	ds	1
  1249  0072                     ??_OSCILLATOR_Initialize:	
  1250  0072                     ??_TMR0_Initialize:	
  1251                           ; 1 bytes @ 0x2
  1252                           
  1253  0072                     ??_PIN_MANAGER_Initialize:	
  1254                           ; 1 bytes @ 0x2
  1255                           
  1256                           
  1257                           ; 1 bytes @ 0x2
  1258  0072                     	ds	1
  1259  0073                     ??_SYSTEM_Initialize:	
  1260  0073                     ??_main:	
  1261                           ; 1 bytes @ 0x3
  1262                           
  1263                           
  1264                           	psect	maintext
  1265  0095                     __pmaintext:	
  1266                           ; 1 bytes @ 0x3
  1267 ;;
  1268 ;;Main: autosize = 0, tempsize = 0, incstack = 0, save=0
  1269 ;;
  1270 ;; *************** function _main *****************
  1271 ;; Defined at:
  1272 ;;		line 52 in file "main.c"
  1273 ;; Parameters:    Size  Location     Type
  1274 ;;		None
  1275 ;; Auto vars:     Size  Location     Type
  1276 ;;		None
  1277 ;; Return value:  Size  Location     Type
  1278 ;;                  1    wreg      void 
  1279 ;; Registers used:
  1280 ;;		wreg, status,2, status,0, pclath, cstack
  1281 ;; Tracked objects:
  1282 ;;		On entry : B1F/0
  1283 ;;		On exit  : 0/0
  1284 ;;		Unchanged: 0/0
  1285 ;; Data sizes:     COMMON   BANK0   BANK1   BANK2   BANK3   BANK4   BANK5   BANK6   BANK7   BANK8   BANK9  BANK10  BANK1
      +1  BANK12  BANK13  BANK14  BANK15  BANK16  BANK17  BANK18
  1286 ;;      Params:         0       0       0       0       0       0       0       0       0       0       0       0       
      +0       0       0       0       0       0       0       0
  1287 ;;      Locals:         0       0       0       0       0       0       0       0       0       0       0       0       
      +0       0       0       0       0       0       0       0
  1288 ;;      Temps:          0       0       0       0       0       0       0       0       0       0       0       0       
      +0       0       0       0       0       0       0       0
  1289 ;;      Totals:         0       0       0       0       0       0       0       0       0       0       0       0       
      +0       0       0       0       0       0       0       0
  1290 ;;Total ram usage:        0 bytes
  1291 ;; Hardware stack levels required when called:    5
  1292 ;; This function calls:
  1293 ;;		_SYSTEM_Initialize
  1294 ;; This function is called by:
  1295 ;;		Startup code after reset
  1296 ;; This function uses a non-reentrant model
  1297 ;;
  1298                           
  1299                           
  1300                           ;psect for function _main
  1301  0095                     _main:	
  1302                           
  1303                           ;main.c: 54: SYSTEM_Initialize();
  1304                           
  1305                           ;incstack = 0
  1306                           ; Regs used in _main: [wreg+status,2+status,0+pclath+cstack]
  1307  0095  3180  208C  3180   	fcall	_SYSTEM_Initialize
  1308                           
  1309                           ;main.c: 60: (INTCONbits.GIE = 1);
  1310  0098  178B               	bsf	11,7	;volatile
  1311                           
  1312                           ;main.c: 70: INTCONbits.TMR0IE = 1;
  1313  0099  168B               	bsf	11,5	;volatile
  1314  009A                     l111:	
  1315                           ;main.c: 71: while (1) {
  1316                           
  1317  009A  289A               	goto	l111
  1318  009B                     __end_of_main:	
  1319                           
  1320                           	psect	text1
  1321  008C                     __ptext1:	
  1322 ;; *************** function _SYSTEM_Initialize *****************
  1323 ;; Defined at:
  1324 ;;		line 69 in file "mcc_generated_files/mcc.c"
  1325 ;; Parameters:    Size  Location     Type
  1326 ;;		None
  1327 ;; Auto vars:     Size  Location     Type
  1328 ;;		None
  1329 ;; Return value:  Size  Location     Type
  1330 ;;                  1    wreg      void 
  1331 ;; Registers used:
  1332 ;;		wreg, status,2, status,0, pclath, cstack
  1333 ;; Tracked objects:
  1334 ;;		On entry : 0/0
  1335 ;;		On exit  : 0/0
  1336 ;;		Unchanged: 0/0
  1337 ;; Data sizes:     COMMON   BANK0   BANK1   BANK2   BANK3   BANK4   BANK5   BANK6   BANK7   BANK8   BANK9  BANK10  BANK1
      +1  BANK12  BANK13  BANK14  BANK15  BANK16  BANK17  BANK18
  1338 ;;      Params:         0       0       0       0       0       0       0       0       0       0       0       0       
      +0       0       0       0       0       0       0       0
  1339 ;;      Locals:         0       0       0       0       0       0       0       0       0       0       0       0       
      +0       0       0       0       0       0       0       0
  1340 ;;      Temps:          0       0       0       0       0       0       0       0       0       0       0       0       
      +0       0       0       0       0       0       0       0
  1341 ;;      Totals:         0       0       0       0       0       0       0       0       0       0       0       0       
      +0       0       0       0       0       0       0       0
  1342 ;;Total ram usage:        0 bytes
  1343 ;; Hardware stack levels used:    1
  1344 ;; Hardware stack levels required when called:    4
  1345 ;; This function calls:
  1346 ;;		_OSCILLATOR_Initialize
  1347 ;;		_PIN_MANAGER_Initialize
  1348 ;;		_TMR0_Initialize
  1349 ;; This function is called by:
  1350 ;;		_main
  1351 ;; This function uses a non-reentrant model
  1352 ;;
  1353                           
  1354                           
  1355                           ;psect for function _SYSTEM_Initialize
  1356  008C                     _SYSTEM_Initialize:	
  1357                           
  1358                           ;mcc.c: 70: OSCILLATOR_Initialize();
  1359                           
  1360                           ;incstack = 0
  1361                           ; Regs used in _SYSTEM_Initialize: [wreg+status,2+status,0+pclath+cstack]
  1362  008C  3180  209B  3180   	fcall	_OSCILLATOR_Initialize
  1363                           
  1364                           ;mcc.c: 71: PIN_MANAGER_Initialize();
  1365  008F  3180  201B  3180   	fcall	_PIN_MANAGER_Initialize
  1366                           
  1367                           ;mcc.c: 72: TMR0_Initialize();
  1368  0092  3180  2071         	fcall	_TMR0_Initialize
  1369  0094  0008               	return
  1370  0095                     __end_of_SYSTEM_Initialize:	
  1371                           
  1372                           	psect	text2
  1373  0071                     __ptext2:	
  1374 ;; *************** function _TMR0_Initialize *****************
  1375 ;; Defined at:
  1376 ;;		line 64 in file "mcc_generated_files/tmr0.c"
  1377 ;; Parameters:    Size  Location     Type
  1378 ;;		None
  1379 ;; Auto vars:     Size  Location     Type
  1380 ;;		None
  1381 ;; Return value:  Size  Location     Type
  1382 ;;                  1    wreg      void 
  1383 ;; Registers used:
  1384 ;;		wreg, status,2
  1385 ;; Tracked objects:
  1386 ;;		On entry : 0/0
  1387 ;;		On exit  : 0/0
  1388 ;;		Unchanged: 0/0
  1389 ;; Data sizes:     COMMON   BANK0   BANK1   BANK2   BANK3   BANK4   BANK5   BANK6   BANK7   BANK8   BANK9  BANK10  BANK1
      +1  BANK12  BANK13  BANK14  BANK15  BANK16  BANK17  BANK18
  1390 ;;      Params:         0       0       0       0       0       0       0       0       0       0       0       0       
      +0       0       0       0       0       0       0       0
  1391 ;;      Locals:         0       0       0       0       0       0       0       0       0       0       0       0       
      +0       0       0       0       0       0       0       0
  1392 ;;      Temps:          1       0       0       0       0       0       0       0       0       0       0       0       
      +0       0       0       0       0       0       0       0
  1393 ;;      Totals:         1       0       0       0       0       0       0       0       0       0       0       0       
      +0       0       0       0       0       0       0       0
  1394 ;;Total ram usage:        1 bytes
  1395 ;; Hardware stack levels used:    1
  1396 ;; Hardware stack levels required when called:    3
  1397 ;; This function calls:
  1398 ;;		Nothing
  1399 ;; This function is called by:
  1400 ;;		_SYSTEM_Initialize
  1401 ;; This function uses a non-reentrant model
  1402 ;;
  1403                           
  1404                           
  1405                           ;psect for function _TMR0_Initialize
  1406  0071                     _TMR0_Initialize:	
  1407                           
  1408                           ;tmr0.c: 68: OPTION_REG = (OPTION_REG & 0xC0) | 0xC7 & 0x3F;
  1409                           
  1410                           ;incstack = 0
  1411                           ; Regs used in _TMR0_Initialize: [wreg+status,2]
  1412  0071  0021               	movlb	1	; select bank1
  1413  0072  0815               	movf	21,w	;volatile
  1414  0073  39C0               	andlw	192
  1415  0074  3807               	iorlw	7
  1416  0075  0095               	movwf	21	;volatile
  1417                           
  1418                           ;tmr0.c: 71: TMR0 = 0x0C;
  1419  0076  300C               	movlw	12
  1420  0077  0020               	movlb	0	; select bank0
  1421  0078  0095               	movwf	21	;volatile
  1422                           
  1423                           ;tmr0.c: 74: timer0ReloadVal = 12;
  1424  0079  300C               	movlw	12
  1425  007A  00F2               	movwf	??_TMR0_Initialize
  1426  007B  0872               	movf	??_TMR0_Initialize,w
  1427  007C  00F5               	movwf	_timer0ReloadVal	;volatile
  1428                           
  1429                           ;tmr0.c: 77: INTCONbits.TMR0IF = 0;
  1430  007D  110B               	bcf	11,2	;volatile
  1431                           
  1432                           ;tmr0.c: 80: INTCONbits.TMR0IE = 1;
  1433  007E  168B               	bsf	11,5	;volatile
  1434  007F  0008               	return
  1435  0080                     __end_of_TMR0_Initialize:	
  1436                           
  1437                           	psect	text3
  1438  001B                     __ptext3:	
  1439 ;; *************** function _PIN_MANAGER_Initialize *****************
  1440 ;; Defined at:
  1441 ;;		line 50 in file "mcc_generated_files/pin_manager.c"
  1442 ;; Parameters:    Size  Location     Type
  1443 ;;		None
  1444 ;; Auto vars:     Size  Location     Type
  1445 ;;		None
  1446 ;; Return value:  Size  Location     Type
  1447 ;;                  1    wreg      void 
  1448 ;; Registers used:
  1449 ;;		wreg, status,2
  1450 ;; Tracked objects:
  1451 ;;		On entry : 0/0
  1452 ;;		On exit  : 0/0
  1453 ;;		Unchanged: 0/0
  1454 ;; Data sizes:     COMMON   BANK0   BANK1   BANK2   BANK3   BANK4   BANK5   BANK6   BANK7   BANK8   BANK9  BANK10  BANK1
      +1  BANK12  BANK13  BANK14  BANK15  BANK16  BANK17  BANK18
  1455 ;;      Params:         0       0       0       0       0       0       0       0       0       0       0       0       
      +0       0       0       0       0       0       0       0
  1456 ;;      Locals:         0       0       0       0       0       0       0       0       0       0       0       0       
      +0       0       0       0       0       0       0       0
  1457 ;;      Temps:          0       0       0       0       0       0       0       0       0       0       0       0       
      +0       0       0       0       0       0       0       0
  1458 ;;      Totals:         0       0       0       0       0       0       0       0       0       0       0       0       
      +0       0       0       0       0       0       0       0
  1459 ;;Total ram usage:        0 bytes
  1460 ;; Hardware stack levels used:    1
  1461 ;; Hardware stack levels required when called:    3
  1462 ;; This function calls:
  1463 ;;		Nothing
  1464 ;; This function is called by:
  1465 ;;		_SYSTEM_Initialize
  1466 ;; This function uses a non-reentrant model
  1467 ;;
  1468                           
  1469                           
  1470                           ;psect for function _PIN_MANAGER_Initialize
  1471  001B                     _PIN_MANAGER_Initialize:	
  1472                           
  1473                           ;pin_manager.c: 51: LATA = 0x00;
  1474                           
  1475                           ;incstack = 0
  1476                           ; Regs used in _PIN_MANAGER_Initialize: [wreg+status,2]
  1477  001B  0022               	movlb	2	; select bank2
  1478  001C  018C               	clrf	12	;volatile
  1479                           
  1480                           ;pin_manager.c: 52: TRISA = 0xFF;
  1481  001D  30FF               	movlw	255
  1482  001E  0021               	movlb	1	; select bank1
  1483  001F  008C               	movwf	12	;volatile
  1484                           
  1485                           ;pin_manager.c: 53: ANSELA = 0x2F;
  1486  0020  302F               	movlw	47
  1487  0021  0023               	movlb	3	; select bank3
  1488  0022  008C               	movwf	12	;volatile
  1489                           
  1490                           ;pin_manager.c: 55: LATB = 0x00;
  1491  0023  0022               	movlb	2	; select bank2
  1492  0024  018D               	clrf	13	;volatile
  1493                           
  1494                           ;pin_manager.c: 56: TRISB = 0xFF;
  1495  0025  30FF               	movlw	255
  1496  0026  0021               	movlb	1	; select bank1
  1497  0027  008D               	movwf	13	;volatile
  1498                           
  1499                           ;pin_manager.c: 57: ANSELB = 0x3F;
  1500  0028  303F               	movlw	63
  1501  0029  0023               	movlb	3	; select bank3
  1502  002A  008D               	movwf	13	;volatile
  1503                           
  1504                           ;pin_manager.c: 58: WPUB = 0x00;
  1505  002B  0024               	movlb	4	; select bank4
  1506  002C  018D               	clrf	13	;volatile
  1507                           
  1508                           ;pin_manager.c: 60: LATC = 0x00;
  1509  002D  0022               	movlb	2	; select bank2
  1510  002E  018E               	clrf	14	;volatile
  1511                           
  1512                           ;pin_manager.c: 61: TRISC = 0xFF;
  1513  002F  30FF               	movlw	255
  1514  0030  0021               	movlb	1	; select bank1
  1515  0031  008E               	movwf	14	;volatile
  1516                           
  1517                           ;pin_manager.c: 63: LATD = 0x00;
  1518  0032  0022               	movlb	2	; select bank2
  1519  0033  018F               	clrf	15	;volatile
  1520                           
  1521                           ;pin_manager.c: 64: TRISD = 0xFF;
  1522  0034  30FF               	movlw	255
  1523  0035  0021               	movlb	1	; select bank1
  1524  0036  008F               	movwf	15	;volatile
  1525                           
  1526                           ;pin_manager.c: 65: ANSELD = 0x0F;
  1527  0037  300F               	movlw	15
  1528  0038  0023               	movlb	3	; select bank3
  1529  0039  008F               	movwf	15	;volatile
  1530                           
  1531                           ;pin_manager.c: 66: WPUD = 0x00;
  1532  003A  0024               	movlb	4	; select bank4
  1533  003B  018F               	clrf	15	;volatile
  1534                           
  1535                           ;pin_manager.c: 68: LATE = 0x00;
  1536  003C  0022               	movlb	2	; select bank2
  1537  003D  0190               	clrf	16	;volatile
  1538                           
  1539                           ;pin_manager.c: 69: TRISE = 0xFF;
  1540  003E  30FF               	movlw	255
  1541  003F  0021               	movlb	1	; select bank1
  1542  0040  0090               	movwf	16	;volatile
  1543                           
  1544                           ;pin_manager.c: 70: ANSELE = 0x07;
  1545  0041  3007               	movlw	7
  1546  0042  0023               	movlb	3	; select bank3
  1547  0043  0090               	movwf	16	;volatile
  1548                           
  1549                           ;pin_manager.c: 71: WPUE = 0x00;
  1550  0044  0024               	movlb	4	; select bank4
  1551  0045  0190               	clrf	16	;volatile
  1552                           
  1553                           ;pin_manager.c: 73: LATF = 0x00;
  1554  0046  0027               	movlb	7	; select bank7
  1555  0047  018C               	clrf	12	;volatile
  1556                           
  1557                           ;pin_manager.c: 74: TRISF = 0xFE;
  1558  0048  30FE               	movlw	254
  1559  0049  0026               	movlb	6	; select bank6
  1560  004A  008C               	movwf	12	;volatile
  1561                           
  1562                           ;pin_manager.c: 75: ANSELF = 0xFE;
  1563  004B  30FE               	movlw	254
  1564  004C  0028               	movlb	8	; select bank8
  1565  004D  008C               	movwf	12	;volatile
  1566                           
  1567                           ;pin_manager.c: 77: LATG = 0x00;
  1568  004E  0027               	movlb	7	; select bank7
  1569  004F  018D               	clrf	13	;volatile
  1570                           
  1571                           ;pin_manager.c: 78: TRISG = 0x1F;
  1572  0050  301F               	movlw	31
  1573  0051  0026               	movlb	6	; select bank6
  1574  0052  008D               	movwf	13	;volatile
  1575                           
  1576                           ;pin_manager.c: 79: ANSELG = 0x1E;
  1577  0053  301E               	movlw	30
  1578  0054  0028               	movlb	8	; select bank8
  1579  0055  008D               	movwf	13	;volatile
  1580                           
  1581                           ;pin_manager.c: 80: WPUG = 0x00;
  1582  0056  0029               	movlb	9	; select bank9
  1583  0057  018D               	clrf	13	;volatile
  1584                           
  1585                           ;pin_manager.c: 82: OPTION_REGbits.nWPUEN = 0x01;
  1586  0058  0021               	movlb	1	; select bank1
  1587  0059  1795               	bsf	21,7	;volatile
  1588                           
  1589                           ;pin_manager.c: 84: APFCON = 0x00;
  1590  005A  0022               	movlb	2	; select bank2
  1591  005B  019D               	clrf	29	;volatile
  1592  005C  0008               	return
  1593  005D                     __end_of_PIN_MANAGER_Initialize:	
  1594                           
  1595                           	psect	text4
  1596  009B                     __ptext4:	
  1597 ;; *************** function _OSCILLATOR_Initialize *****************
  1598 ;; Defined at:
  1599 ;;		line 75 in file "mcc_generated_files/mcc.c"
  1600 ;; Parameters:    Size  Location     Type
  1601 ;;		None
  1602 ;; Auto vars:     Size  Location     Type
  1603 ;;		None
  1604 ;; Return value:  Size  Location     Type
  1605 ;;                  1    wreg      void 
  1606 ;; Registers used:
  1607 ;;		wreg, status,2
  1608 ;; Tracked objects:
  1609 ;;		On entry : 0/0
  1610 ;;		On exit  : 0/0
  1611 ;;		Unchanged: 0/0
  1612 ;; Data sizes:     COMMON   BANK0   BANK1   BANK2   BANK3   BANK4   BANK5   BANK6   BANK7   BANK8   BANK9  BANK10  BANK1
      +1  BANK12  BANK13  BANK14  BANK15  BANK16  BANK17  BANK18
  1613 ;;      Params:         0       0       0       0       0       0       0       0       0       0       0       0       
      +0       0       0       0       0       0       0       0
  1614 ;;      Locals:         0       0       0       0       0       0       0       0       0       0       0       0       
      +0       0       0       0       0       0       0       0
  1615 ;;      Temps:          0       0       0       0       0       0       0       0       0       0       0       0       
      +0       0       0       0       0       0       0       0
  1616 ;;      Totals:         0       0       0       0       0       0       0       0       0       0       0       0       
      +0       0       0       0       0       0       0       0
  1617 ;;Total ram usage:        0 bytes
  1618 ;; Hardware stack levels used:    1
  1619 ;; Hardware stack levels required when called:    3
  1620 ;; This function calls:
  1621 ;;		Nothing
  1622 ;; This function is called by:
  1623 ;;		_SYSTEM_Initialize
  1624 ;; This function uses a non-reentrant model
  1625 ;;
  1626                           
  1627                           
  1628                           ;psect for function _OSCILLATOR_Initialize
  1629  009B                     _OSCILLATOR_Initialize:	
  1630                           
  1631                           ;mcc.c: 77: OSCCON = 0x5A;
  1632                           
  1633                           ;incstack = 0
  1634                           ; Regs used in _OSCILLATOR_Initialize: [wreg+status,2]
  1635  009B  305A               	movlw	90
  1636  009C  0021               	movlb	1	; select bank1
  1637  009D  0099               	movwf	25	;volatile
  1638                           
  1639                           ;mcc.c: 79: OSCSTAT = 0x00;
  1640  009E  019A               	clrf	26	;volatile
  1641  009F  0008               	return
  1642  00A0                     __end_of_OSCILLATOR_Initialize:	
  1643                           
  1644                           	psect	intentry
  1645  0004                     __pintentry:	
  1646 ;; *************** function _INTERRUPT_InterruptManager *****************
  1647 ;; Defined at:
  1648 ;;		line 52 in file "mcc_generated_files/interrupt_manager.c"
  1649 ;; Parameters:    Size  Location     Type
  1650 ;;		None
  1651 ;; Auto vars:     Size  Location     Type
  1652 ;;		None
  1653 ;; Return value:  Size  Location     Type
  1654 ;;                  1    wreg      void 
  1655 ;; Registers used:
  1656 ;;		wreg, status,2, status,0, pclath, cstack
  1657 ;; Tracked objects:
  1658 ;;		On entry : 0/0
  1659 ;;		On exit  : 0/0
  1660 ;;		Unchanged: 0/0
  1661 ;; Data sizes:     COMMON   BANK0   BANK1   BANK2   BANK3   BANK4   BANK5   BANK6   BANK7   BANK8   BANK9  BANK10  BANK1
      +1  BANK12  BANK13  BANK14  BANK15  BANK16  BANK17  BANK18
  1662 ;;      Params:         0       0       0       0       0       0       0       0       0       0       0       0       
      +0       0       0       0       0       0       0       0
  1663 ;;      Locals:         0       0       0       0       0       0       0       0       0       0       0       0       
      +0       0       0       0       0       0       0       0
  1664 ;;      Temps:          1       0       0       0       0       0       0       0       0       0       0       0       
      +0       0       0       0       0       0       0       0
  1665 ;;      Totals:         1       0       0       0       0       0       0       0       0       0       0       0       
      +0       0       0       0       0       0       0       0
  1666 ;;Total ram usage:        1 bytes
  1667 ;; Hardware stack levels used:    1
  1668 ;; Hardware stack levels required when called:    2
  1669 ;; This function calls:
  1670 ;;		_TMR0_ISR
  1671 ;; This function is called by:
  1672 ;;		Interrupt level 1
  1673 ;; This function uses a non-reentrant model
  1674 ;;
  1675                           
  1676  0004                     _INTERRUPT_InterruptManager:	
  1677                           
  1678                           ;incstack = 0
  1679  0004  147E               	bsf	126,0	;set compiler interrupt flag (level 1)
  1680                           
  1681                           ; Regs used in _INTERRUPT_InterruptManager: [wreg+status,2+status,0+pclath+cstack]
  1682  0005  3180               	pagesel	$
  1683  0006  0020               	movlb	0	; select bank0
  1684  0007  087F               	movf	127,w
  1685  0008  00F1               	movwf	??_INTERRUPT_InterruptManager
  1686                           
  1687                           ;interrupt_manager.c: 54: if (INTCONbits.TMR0IE == 1 && INTCONbits.TMR0IF == 1) {
  1688  0009  1A8B               	btfsc	11,5	;volatile
  1689  000A  1D0B               	btfss	11,2	;volatile
  1690  000B  280E               	goto	i1l123
  1691                           
  1692                           ;interrupt_manager.c: 55: TMR0_ISR();
  1693  000C  3180  205D         	fcall	_TMR0_ISR
  1694  000E                     i1l123:	
  1695                           ;interrupt_manager.c: 56: } else {
  1696                           
  1697  000E  0871               	movf	??_INTERRUPT_InterruptManager,w
  1698  000F  0020               	movlb	0	; select bank0
  1699  0010  00FF               	movwf	127
  1700  0011  107E               	bcf	126,0	;clear compiler interrupt flag (level 1)
  1701  0012  0009               	retfie
  1702  0013                     __end_of_INTERRUPT_InterruptManager:	
  1703                           
  1704                           	psect	text6
  1705  005D                     __ptext6:	
  1706 ;; *************** function _TMR0_ISR *****************
  1707 ;; Defined at:
  1708 ;;		line 101 in file "mcc_generated_files/tmr0.c"
  1709 ;; Parameters:    Size  Location     Type
  1710 ;;		None
  1711 ;; Auto vars:     Size  Location     Type
  1712 ;;		None
  1713 ;; Return value:  Size  Location     Type
  1714 ;;                  1    wreg      void 
  1715 ;; Registers used:
  1716 ;;		wreg, status,2, status,0, pclath, cstack
  1717 ;; Tracked objects:
  1718 ;;		On entry : 0/0
  1719 ;;		On exit  : 0/0
  1720 ;;		Unchanged: 0/0
  1721 ;; Data sizes:     COMMON   BANK0   BANK1   BANK2   BANK3   BANK4   BANK5   BANK6   BANK7   BANK8   BANK9  BANK10  BANK1
      +1  BANK12  BANK13  BANK14  BANK15  BANK16  BANK17  BANK18
  1722 ;;      Params:         0       0       0       0       0       0       0       0       0       0       0       0       
      +0       0       0       0       0       0       0       0
  1723 ;;      Locals:         0       0       0       0       0       0       0       0       0       0       0       0       
      +0       0       0       0       0       0       0       0
  1724 ;;      Temps:          0       0       0       0       0       0       0       0       0       0       0       0       
      +0       0       0       0       0       0       0       0
  1725 ;;      Totals:         0       0       0       0       0       0       0       0       0       0       0       0       
      +0       0       0       0       0       0       0       0
  1726 ;;Total ram usage:        0 bytes
  1727 ;; Hardware stack levels used:    1
  1728 ;; Hardware stack levels required when called:    1
  1729 ;; This function calls:
  1730 ;;		_TMR0_CallBack
  1731 ;; This function is called by:
  1732 ;;		_INTERRUPT_InterruptManager
  1733 ;; This function uses a non-reentrant model
  1734 ;;
  1735                           
  1736                           
  1737                           ;psect for function _TMR0_ISR
  1738  005D                     _TMR0_ISR:	
  1739                           
  1740                           ;tmr0.c: 102: static volatile unsigned int CountCallBack = 0;
  1741                           ;tmr0.c: 105: INTCONbits.TMR0IF = 0;
  1742                           
  1743                           ;incstack = 0
  1744                           ; Regs used in _TMR0_ISR: [wreg+status,2+status,0+pclath+cstack]
  1745  005D  110B               	bcf	11,2	;volatile
  1746                           
  1747                           ;tmr0.c: 107: TMR0 = timer0ReloadVal;
  1748  005E  0875               	movf	_timer0ReloadVal,w	;volatile
  1749  005F  0020               	movlb	0	; select bank0
  1750  0060  0095               	movwf	21	;volatile
  1751                           
  1752                           ;tmr0.c: 110: if (++CountCallBack >= 4) {
  1753  0061  3001               	movlw	1
  1754  0062  07F3               	addwf	TMR0_ISR@CountCallBack,f	;volatile
  1755  0063  3000               	movlw	0
  1756  0064  3DF4               	addwfc	TMR0_ISR@CountCallBack+1,f	;volatile
  1757  0065  3000               	movlw	0
  1758  0066  0274               	subwf	TMR0_ISR@CountCallBack+1,w	;volatile
  1759  0067  3004               	movlw	4
  1760  0068  1903               	skipnz
  1761  0069  0273               	subwf	TMR0_ISR@CountCallBack,w	;volatile
  1762  006A  1C03               	skipc
  1763  006B  0008               	return
  1764                           
  1765                           ;tmr0.c: 112: TMR0_CallBack();
  1766  006C  3180  2080         	fcall	_TMR0_CallBack
  1767                           
  1768                           ;tmr0.c: 115: CountCallBack = 0;
  1769  006E  01F3               	clrf	TMR0_ISR@CountCallBack	;volatile
  1770  006F  01F4               	clrf	TMR0_ISR@CountCallBack+1	;volatile
  1771  0070  0008               	return
  1772  0071                     __end_of_TMR0_ISR:	
  1773                           
  1774                           	psect	text7
  1775  0080                     __ptext7:	
  1776 ;; *************** function _TMR0_CallBack *****************
  1777 ;; Defined at:
  1778 ;;		line 121 in file "mcc_generated_files/tmr0.c"
  1779 ;; Parameters:    Size  Location     Type
  1780 ;;		None
  1781 ;; Auto vars:     Size  Location     Type
  1782 ;;		None
  1783 ;; Return value:  Size  Location     Type
  1784 ;;                  1    wreg      void 
  1785 ;; Registers used:
  1786 ;;		wreg, status,2, status,0
  1787 ;; Tracked objects:
  1788 ;;		On entry : 0/0
  1789 ;;		On exit  : 0/0
  1790 ;;		Unchanged: 0/0
  1791 ;; Data sizes:     COMMON   BANK0   BANK1   BANK2   BANK3   BANK4   BANK5   BANK6   BANK7   BANK8   BANK9  BANK10  BANK1
      +1  BANK12  BANK13  BANK14  BANK15  BANK16  BANK17  BANK18
  1792 ;;      Params:         0       0       0       0       0       0       0       0       0       0       0       0       
      +0       0       0       0       0       0       0       0
  1793 ;;      Locals:         0       0       0       0       0       0       0       0       0       0       0       0       
      +0       0       0       0       0       0       0       0
  1794 ;;      Temps:          1       0       0       0       0       0       0       0       0       0       0       0       
      +0       0       0       0       0       0       0       0
  1795 ;;      Totals:         1       0       0       0       0       0       0       0       0       0       0       0       
      +0       0       0       0       0       0       0       0
  1796 ;;Total ram usage:        1 bytes
  1797 ;; Hardware stack levels used:    1
  1798 ;; This function calls:
  1799 ;;		Nothing
  1800 ;; This function is called by:
  1801 ;;		_TMR0_ISR
  1802 ;; This function uses a non-reentrant model
  1803 ;;
  1804                           
  1805                           
  1806                           ;psect for function _TMR0_CallBack
  1807  0080                     _TMR0_CallBack:	
  1808                           
  1809                           ;tmr0.c: 124: LATFbits.LATF0 ^= 1;
  1810                           
  1811                           ;incstack = 0
  1812                           ; Regs used in _TMR0_CallBack: [wreg+status,2+status,0]
  1813  0080  0027               	movlb	7	; select bank7
  1814  0081  080C               	movf	12,w	;volatile
  1815  0082  3901               	andlw	1
  1816  0083  00F0               	movwf	??_TMR0_CallBack
  1817  0084  3001               	movlw	1
  1818  0085  06F0               	xorwf	??_TMR0_CallBack,f
  1819  0086  080C               	movf	12,w	;volatile
  1820  0087  0670               	xorwf	??_TMR0_CallBack,w
  1821  0088  39FE               	andlw	-2
  1822  0089  0670               	xorwf	??_TMR0_CallBack,w
  1823  008A  008C               	movwf	12	;volatile
  1824  008B  0008               	return
  1825  008C                     __end_of_TMR0_CallBack:	
  1826  007E                     btemp	set	126	;btemp
  1827  007E                     int$flags	set	126
  1828  007E                     wtemp0	set	126


Data Sizes:
    Strings     0
    Constant    0
    Data        0
    BSS         2
    Persistent  1
    Stack       0

Auto Spaces:
    Space          Size  Autos    Used
    COMMON           14      3       6
    BANK0            80      0       0
    BANK1            80      0       0
    BANK2            80      0       0
    BANK3            80      0       0
    BANK4            80      0       0
    BANK5            80      0       0
    BANK6            80      0       0
    BANK7            80      0       0
    BANK8            80      0       0
    BANK9            80      0       0
    BANK10           80      0       0
    BANK11           80      0       0
    BANK12           80      0       0
    BANK13           80      0       0
    BANK14           80      0       0
    BANK15           80      0       0
    BANK16           80      0       0
    BANK17           80      0       0
    BANK18           80      0       0

Pointer List with Targets:

    None.

Critical Paths under _main in COMMON

    _SYSTEM_Initialize->_TMR0_Initialize

Critical Paths under _INTERRUPT_InterruptManager in COMMON

    _TMR0_ISR->_TMR0_CallBack

Critical Paths under _main in BANK0

    None.

Critical Paths under _INTERRUPT_InterruptManager in BANK0

    None.

Critical Paths under _main in BANK1

    None.

Critical Paths under _INTERRUPT_InterruptManager in BANK1

    None.

Critical Paths under _main in BANK2

    None.

Critical Paths under _INTERRUPT_InterruptManager in BANK2

    None.

Critical Paths under _main in BANK3

    None.

Critical Paths under _INTERRUPT_InterruptManager in BANK3

    None.

Critical Paths under _main in BANK4

    None.

Critical Paths under _INTERRUPT_InterruptManager in BANK4

    None.

Critical Paths under _main in BANK5

    None.

Critical Paths under _INTERRUPT_InterruptManager in BANK5

    None.

Critical Paths under _main in BANK6

    None.

Critical Paths under _INTERRUPT_InterruptManager in BANK6

    None.

Critical Paths under _main in BANK7

    None.

Critical Paths under _INTERRUPT_InterruptManager in BANK7

    None.

Critical Paths under _main in BANK8

    None.

Critical Paths under _INTERRUPT_InterruptManager in BANK8

    None.

Critical Paths under _main in BANK9

    None.

Critical Paths under _INTERRUPT_InterruptManager in BANK9

    None.

Critical Paths under _main in BANK10

    None.

Critical Paths under _INTERRUPT_InterruptManager in BANK10

    None.

Critical Paths under _main in BANK11

    None.

Critical Paths under _INTERRUPT_InterruptManager in BANK11

    None.

Critical Paths under _main in BANK12

    None.

Critical Paths under _INTERRUPT_InterruptManager in BANK12

    None.

Critical Paths under _main in BANK13

    None.

Critical Paths under _INTERRUPT_InterruptManager in BANK13

    None.

Critical Paths under _main in BANK14

    None.

Critical Paths under _INTERRUPT_InterruptManager in BANK14

    None.

Critical Paths under _main in BANK15

    None.

Critical Paths under _INTERRUPT_InterruptManager in BANK15

    None.

Critical Paths under _main in BANK16

    None.

Critical Paths under _INTERRUPT_InterruptManager in BANK16

    None.

Critical Paths under _main in BANK17

    None.

Critical Paths under _INTERRUPT_InterruptManager in BANK17

    None.

Critical Paths under _main in BANK18

    None.

Critical Paths under _INTERRUPT_InterruptManager in BANK18

    None.

Call Graph Tables:

 ---------------------------------------------------------------------------------
 (Depth) Function   	        Calls       Base Space   Used Autos Params    Refs
 ---------------------------------------------------------------------------------
 (0) _main                                                 0     0      0       0
                  _SYSTEM_Initialize
 ---------------------------------------------------------------------------------
 (1) _SYSTEM_Initialize                                    0     0      0       0
              _OSCILLATOR_Initialize
             _PIN_MANAGER_Initialize
                    _TMR0_Initialize
 ---------------------------------------------------------------------------------
 (2) _TMR0_Initialize                                      1     1      0       0
                                              2 COMMON     1     1      0
 ---------------------------------------------------------------------------------
 (2) _PIN_MANAGER_Initialize                               0     0      0       0
 ---------------------------------------------------------------------------------
 (2) _OSCILLATOR_Initialize                                0     0      0       0
 ---------------------------------------------------------------------------------
 Estimated maximum stack depth 2
 ---------------------------------------------------------------------------------
 (Depth) Function   	        Calls       Base Space   Used Autos Params    Refs
 ---------------------------------------------------------------------------------
 (3) _INTERRUPT_InterruptManager                           1     1      0       0
                                              1 COMMON     1     1      0
                           _TMR0_ISR
 ---------------------------------------------------------------------------------
 (4) _TMR0_ISR                                             0     0      0       0
                      _TMR0_CallBack
 ---------------------------------------------------------------------------------
 (5) _TMR0_CallBack                                        1     1      0       0
                                              0 COMMON     1     1      0
 ---------------------------------------------------------------------------------
 Estimated maximum stack depth 5
 ---------------------------------------------------------------------------------

 Call Graph Graphs:

 _main (ROOT)
   _SYSTEM_Initialize
     _OSCILLATOR_Initialize
     _PIN_MANAGER_Initialize
     _TMR0_Initialize

 _INTERRUPT_InterruptManager (ROOT)
   _TMR0_ISR
     _TMR0_CallBack

 Address spaces:
Name               Size   Autos  Total    Cost      Usage
BIGRAM             5F0      0       0       0        0.0%
NULL                 0      0       0       0        0.0%
CODE                 0      0       0       0        0.0%
BITCOMMON            E      0       0       1        0.0%
BITSFR0              0      0       0       1        0.0%
SFR0                 0      0       0       1        0.0%
COMMON               E      3       6       2       42.9%
BITSFR1              0      0       0       2        0.0%
SFR1                 0      0       0       2        0.0%
BITSFR2              0      0       0       3        0.0%
SFR2                 0      0       0       3        0.0%
STACK                0      0       0       3        0.0%
BITBANK0            50      0       0       4        0.0%
BITSFR3              0      0       0       4        0.0%
SFR3                 0      0       0       4        0.0%
BANK0               50      0       0       5        0.0%
BITSFR4              0      0       0       5        0.0%
SFR4                 0      0       0       5        0.0%
BITBANK1            50      0       0       6        0.0%
BITSFR5              0      0       0       6        0.0%
SFR5                 0      0       0       6        0.0%
BANK1               50      0       0       7        0.0%
BITSFR6              0      0       0       7        0.0%
SFR6                 0      0       0       7        0.0%
BITBANK2            50      0       0       8        0.0%
BITSFR7              0      0       0       8        0.0%
SFR7                 0      0       0       8        0.0%
BANK2               50      0       0       9        0.0%
BITSFR8              0      0       0       9        0.0%
SFR8                 0      0       0       9        0.0%
BITBANK3            50      0       0      10        0.0%
BITSFR9              0      0       0      10        0.0%
SFR9                 0      0       0      10        0.0%
BANK3               50      0       0      11        0.0%
BITSFR10             0      0       0      11        0.0%
SFR10                0      0       0      11        0.0%
BITBANK4            50      0       0      12        0.0%
BITSFR11             0      0       0      12        0.0%
SFR11                0      0       0      12        0.0%
BANK4               50      0       0      13        0.0%
BITSFR12             0      0       0      13        0.0%
SFR12                0      0       0      13        0.0%
BITBANK5            50      0       0      14        0.0%
BITSFR13             0      0       0      14        0.0%
SFR13                0      0       0      14        0.0%
BANK5               50      0       0      15        0.0%
BITSFR14             0      0       0      15        0.0%
SFR14                0      0       0      15        0.0%
BITSFR15             0      0       0      16        0.0%
SFR15                0      0       0      16        0.0%
ABS                  0      0       6      16        0.0%
BITBANK6            50      0       0      17        0.0%
BITSFR16             0      0       0      17        0.0%
SFR16                0      0       0      17        0.0%
BANK6               50      0       0      18        0.0%
BITSFR17             0      0       0      18        0.0%
SFR17                0      0       0      18        0.0%
BITBANK7            50      0       0      19        0.0%
BITSFR18             0      0       0      19        0.0%
SFR18                0      0       0      19        0.0%
BANK7               50      0       0      20        0.0%
BITSFR19             0      0       0      20        0.0%
SFR19                0      0       0      20        0.0%
BITBANK8            50      0       0      21        0.0%
BITSFR20             0      0       0      21        0.0%
SFR20                0      0       0      21        0.0%
BANK8               50      0       0      22        0.0%
BITSFR21             0      0       0      22        0.0%
SFR21                0      0       0      22        0.0%
BITBANK9            50      0       0      23        0.0%
BITSFR22             0      0       0      23        0.0%
SFR22                0      0       0      23        0.0%
BANK9               50      0       0      24        0.0%
BITSFR23             0      0       0      24        0.0%
SFR23                0      0       0      24        0.0%
BITBANK10           50      0       0      25        0.0%
BITSFR24             0      0       0      25        0.0%
SFR24                0      0       0      25        0.0%
BANK10              50      0       0      26        0.0%
BITSFR25             0      0       0      26        0.0%
SFR25                0      0       0      26        0.0%
BITBANK11           50      0       0      27        0.0%
BITSFR26             0      0       0      27        0.0%
SFR26                0      0       0      27        0.0%
BITSFR27             0      0       0      28        0.0%
SFR27                0      0       0      28        0.0%
DATA                 0      0       6      28        0.0%
BANK11              50      0       0      29        0.0%
BITSFR28             0      0       0      29        0.0%
SFR28                0      0       0      29        0.0%
BITBANK12           50      0       0      30        0.0%
BITSFR29             0      0       0      30        0.0%
SFR29                0      0       0      30        0.0%
BANK12              50      0       0      31        0.0%
BITSFR30             0      0       0      31        0.0%
SFR30                0      0       0      31        0.0%
BITBANK13           50      0       0      32        0.0%
BITSFR31             0      0       0      32        0.0%
SFR31                0      0       0      32        0.0%
BANK13              50      0       0      33        0.0%
BITBANK14           50      0       0      34        0.0%
BANK14              50      0       0      35        0.0%
BITBANK15           50      0       0      36        0.0%
BANK15              50      0       0      37        0.0%
BITBANK16           50      0       0      38        0.0%
BANK16              50      0       0      39        0.0%
BITBANK17           50      0       0      40        0.0%
BANK17              50      0       0      41        0.0%
BITBANK18           50      0       0      42        0.0%
BANK18              50      0       0      43        0.0%


Microchip Technology PIC Macro Assembler V1.41 build -162212810 
Symbol Table                                                                                   Mon Apr 17 17:30:36 2017

                        __CFG_CP$OFF 0000                      _timer0ReloadVal 0075  
                                l111 009A                         __CFG_BORV$LO 0000  
                       __CFG_LVP$OFF 0000                                 _LATA 010C  
                               _LATB 010D                                 _LATC 010E  
                               _LATD 010F                                 _LATE 0110  
                               _LATF 038C                                 _LATG 038D  
                               _TMR0 0015                                 _WPUB 020D  
                               _WPUD 020F                                 _WPUE 0210  
                               _WPUG 048D                         __CFG_WRT$OFF 0000  
                      __CFG_FCMEN$ON 0000                                 _main 0095  
                               btemp 007E                                 start 0013  
                      __CFG_IESO$OFF 0000                        __CFG_MCLRE$ON 0000  
            __end_of_TMR0_Initialize 0080       __size_of_OSCILLATOR_Initialize 0005  
      __end_of_OSCILLATOR_Initialize 00A0                                ?_main 0070  
                      __CFG_WDTE$OFF 0000                                i1l123 000E  
                              _TRISA 008C                                _TRISB 008D  
                              _TRISC 008E                                _TRISD 008F  
                              _TRISE 0090                                _TRISF 030C  
                              _TRISG 030D                     __end_of_TMR0_ISR 0071  
                     __CFG_BOREN$OFF 0000                                wtemp0 007E  
                    __initialization 0015                         __end_of_main 009B  
                     __CFG_LPBOR$OFF 0000          ?_INTERRUPT_InterruptManager 0070  
                             ??_main 0073                               _APFCON 011D  
                             _ANSELA 018C                               _ANSELB 018D  
                             _ANSELD 018F                               _ANSELE 0190  
                             _ANSELF 040C                               _ANSELG 040D  
                             _OSCCON 0099                       __CFG_PWRTE$OFF 0000  
                     __CFG_STVREN$ON 0000                     ?_TMR0_Initialize 0070  
              __end_of_TMR0_CallBack 008C                    _SYSTEM_Initialize 008C  
            __end_of__initialization 0017                   ?_SYSTEM_Initialize 0070  
                     __pcstackCOMMON 0070                  ??_SYSTEM_Initialize 0073  
                          ?_TMR0_ISR 0070                       _OPTION_REGbits 0095  
              TMR0_ISR@CountCallBack 0073            __end_of_SYSTEM_Initialize 0095  
                         __pnvCOMMON 0075                           __pmaintext 0095  
                         ??_TMR0_ISR 0071                           __pintentry 0004  
                            _OSCSTAT 009A                              __ptext1 008C  
                            __ptext2 0071                              __ptext3 001B  
                            __ptext4 009B                              __ptext6 005D  
                            __ptext7 0080                _OSCILLATOR_Initialize 009B  
           ??_PIN_MANAGER_Initialize 0072           __size_of_SYSTEM_Initialize 0009  
               end_of_initialization 0017                     __CFG_FOSC$INTOSC 0000  
                  __size_of_TMR0_ISR 0014               ?_OSCILLATOR_Initialize 0070  
                start_initialization 0015             __size_of_TMR0_Initialize 000F  
    __size_of_PIN_MANAGER_Initialize 0042               __size_of_TMR0_CallBack 000C  
                        __pbssCOMMON 0073                            ___latbits 0003  
             _PIN_MANAGER_Initialize 001B         ??_INTERRUPT_InterruptManager 0071  
                      _TMR0_CallBack 0080                    ??_TMR0_Initialize 0072  
                           _LATFbits 038C  __size_of_INTERRUPT_InterruptManager 000F  
                           _TMR0_ISR 005D                       ?_TMR0_CallBack 0070  
            ??_OSCILLATOR_Initialize 0072                        __size_of_main 0006  
                           int$flags 007E   __end_of_INTERRUPT_InterruptManager 0013  
         _INTERRUPT_InterruptManager 0004                           _INTCONbits 000B  
                    ??_TMR0_CallBack 0070                             intlevel1 0000  
            ?_PIN_MANAGER_Initialize 0070                    __CFG_CLKOUTEN$OFF 0000  
                         _OPTION_REG 0095                      _TMR0_Initialize 0071  
     __end_of_PIN_MANAGER_Initialize 005D  
